target datalayout = "e-m:e-p270:32:32-p271:32:32-p272:64:64-i64:64-i128:128-f80:128-n8:16:32:64-S128"
target triple = "x86_64-pc-linux-gnu"

@.str = private unnamed_addr constant [32 x i8] c"../openssl/ssl/ssl_rsa_legacy.c\00", align 1
@__func__.SSL_CTX_use_RSAPrivateKey_ASN1 = private unnamed_addr constant [31 x i8] c"SSL_CTX_use_RSAPrivateKey_ASN1\00", align 1

; Function Attrs: nounwind uwtable
define i32 @SSL_CTX_use_RSAPrivateKey_ASN1(ptr noundef %0, ptr noundef %1, i64 noundef %2) #0 {
  %4 = alloca i32, align 4
  %5 = alloca ptr, align 8
  %6 = alloca ptr, align 8
  %7 = alloca i64, align 8
  %8 = alloca i32, align 4
  %9 = alloca ptr, align 8
  %10 = alloca ptr, align 8
  %11 = alloca i32, align 4
  store ptr %0, ptr %5, align 8, !tbaa !20
  store ptr %1, ptr %6, align 8, !tbaa !14
  store i64 %2, ptr %7, align 8, !tbaa !18
  call void @llvm.lifetime.start.p0(i64 4, ptr %8) #3
  call void @llvm.lifetime.start.p0(i64 8, ptr %9) #3
  call void @llvm.lifetime.start.p0(i64 8, ptr %10) #3
  %12 = load ptr, ptr %6, align 8, !tbaa !14
  store ptr %12, ptr %9, align 8, !tbaa !14
  %13 = load i64, ptr %7, align 8, !tbaa !18
  %14 = call ptr @d2i_RSAPrivateKey(ptr noundef null, ptr noundef %9, i64 noundef %13)
  store ptr %14, ptr %10, align 8, !tbaa !8
  %15 = icmp eq ptr %14, null
  br i1 %15, label %16, label %17

16:                                               ; preds = %3
  call void @ERR_new()
  call void @ERR_set_debug(ptr noundef @.str, i32 noundef 183, ptr noundef @__func__.SSL_CTX_use_RSAPrivateKey_ASN1)
  call void (i32, i32, ptr, ...) @ERR_set_error(i32 noundef 20, i32 noundef 524301, ptr noundef null)
  store i32 0, ptr %4, align 4
  store i32 1, ptr %11, align 4
  br label %23

17:                                               ; preds = %3
  %18 = load ptr, ptr %5, align 8, !tbaa !20
  %19 = load ptr, ptr %10, align 8, !tbaa !8
  %20 = call i32 @SSL_CTX_use_RSAPrivateKey(ptr noundef %18, ptr noundef %19)
  store i32 %20, ptr %8, align 4, !tbaa !12
  %21 = load ptr, ptr %10, align 8, !tbaa !8
  call void @RSA_free(ptr noundef %21)
  %22 = load i32, ptr %8, align 4, !tbaa !12
  store i32 %22, ptr %4, align 4
  store i32 1, ptr %11, align 4
  br label %23

23:                                               ; preds = %17, %16
  call void @llvm.lifetime.end.p0(i64 8, ptr %10) #3
  call void @llvm.lifetime.end.p0(i64 8, ptr %9) #3
  call void @llvm.lifetime.end.p0(i64 4, ptr %8) #3
  %24 = load i32, ptr %4, align 4
  ret i32 %24
}