; Function Attrs: nounwind uwtable
define i32 @SSL_CTX_use_RSAPrivateKey_ASN1(ptr noundef %0, ptr noundef %1, i64 noundef %2) local_unnamed_addr #0 {
  %4 = alloca ptr, align 8
  call void @llvm.lifetime.start.p0(i64 8, ptr nonnull %4) #3
  store ptr %1, ptr %4, align 8, !tbaa !3
  %5 = call ptr @d2i_RSAPrivateKey(ptr noundef null, ptr noundef nonnull %4, i64 noundef %2) #3
  %6 = icmp eq ptr %5, null
  br i1 %6, label %7, label %8

7:                                                ; preds = %3
  call void @ERR_new() #3
  call void @ERR_set_debug(ptr noundef nonnull @.str, i32 noundef 183, ptr noundef nonnull @__func__.SSL_CTX_use_RSAPrivateKey_ASN1) #3
  call void (i32, i32, ptr, ...) @ERR_set_error(i32 noundef 20, i32 noundef 524301, ptr noundef null) #3
  br label %10

8:                                                ; preds = %3
  %9 = call i32 @SSL_CTX_use_RSAPrivateKey(ptr noundef %0, ptr noundef nonnull %5)
  call void @RSA_free(ptr noundef nonnull %5) #3
  br label %10

10:                                               ; preds = %8, %7
  %.0 = phi i32 [ 0, %7 ], [ %9, %8 ]
  call void @llvm.lifetime.end.p0(i64 8, ptr nonnull %4) #3
  ret i32 %.0
}